target datalayout = "e-m:e-p270:32:32-p271:32:32-p272:64:64-i64:64-i128:128-f80:128-n8:16:32:64-S128"
target triple = "x86_64-unknown-linux-gnu"

%"struct.facebook::velox::common::SpillStats" = type { i64, i64, i64, i64, i32, i64, i64, i64, i64, i64, i64, i64, i64 }

; Function Attrs: mustprogress nounwind uwtable
define noundef nonnull align 8 dereferenceable(104) ptr @_ZN8facebook5velox6common10SpillStatspLERKS2_(ptr noundef nonnull align 8 dereferenceable(104) %this, ptr noundef nonnull align 8 dereferenceable(104) %other) #0 align 2 {
entry:
  %this.addr = alloca ptr, align 8
  %other.addr = alloca ptr, align 8
  store ptr %this, ptr %this.addr, align 8
  store ptr %other, ptr %other.addr, align 8
  %this1 = load ptr, ptr %this.addr, align 8
  %0 = load ptr, ptr %other.addr, align 8
  %spillRuns = getelementptr inbounds %"struct.facebook::velox::common::SpillStats", ptr %0, i32 0, i32 0
  %1 = load i64, ptr %spillRuns, align 8
  %spillRuns2 = getelementptr inbounds %"struct.facebook::velox::common::SpillStats", ptr %this1, i32 0, i32 0
  %2 = load i64, ptr %spillRuns2, align 8
  %add = add i64 %2, %1
  store i64 %add, ptr %spillRuns2, align 8
  %3 = load ptr, ptr %other.addr, align 8
  %spilledInputBytes = getelementptr inbounds %"struct.facebook::velox::common::SpillStats", ptr %3, i32 0, i32 1
  %4 = load i64, ptr %spilledInputBytes, align 8
  %spilledInputBytes3 = getelementptr inbounds %"struct.facebook::velox::common::SpillStats", ptr %this1, i32 0, i32 1
  %5 = load i64, ptr %spilledInputBytes3, align 8
  %add4 = add i64 %5, %4
  store i64 %add4, ptr %spilledInputBytes3, align 8
  %6 = load ptr, ptr %other.addr, align 8
  %spilledBytes = getelementptr inbounds %"struct.facebook::velox::common::SpillStats", ptr %6, i32 0, i32 2
  %7 = load i64, ptr %spilledBytes, align 8
  %spilledBytes5 = getelementptr inbounds %"struct.facebook::velox::common::SpillStats", ptr %this1, i32 0, i32 2
  %8 = load i64, ptr %spilledBytes5, align 8
  %add6 = add i64 %8, %7
  store i64 %add6, ptr %spilledBytes5, align 8
  %9 = load ptr, ptr %other.addr, align 8
  %spilledRows = getelementptr inbounds %"struct.facebook::velox::common::SpillStats", ptr %9, i32 0, i32 3
  %10 = load i64, ptr %spilledRows, align 8
  %spilledRows7 = getelementptr inbounds %"struct.facebook::velox::common::SpillStats", ptr %this1, i32 0, i32 3
  %11 = load i64, ptr %spilledRows7, align 8
  %add8 = add i64 %11, %10
  store i64 %add8, ptr %spilledRows7, align 8
  %12 = load ptr, ptr %other.addr, align 8
  %spilledPartitions = getelementptr inbounds %"struct.facebook::velox::common::SpillStats", ptr %12, i32 0, i32 4
  %13 = load i32, ptr %spilledPartitions, align 8
  %spilledPartitions9 = getelementptr inbounds %"struct.facebook::velox::common::SpillStats", ptr %this1, i32 0, i32 4
  %14 = load i32, ptr %spilledPartitions9, align 8
  %add10 = add i32 %14, %13
  store i32 %add10, ptr %spilledPartitions9, align 8
  %15 = load ptr, ptr %other.addr, align 8
  %spilledFiles = getelementptr inbounds %"struct.facebook::velox::common::SpillStats", ptr %15, i32 0, i32 5
  %16 = load i64, ptr %spilledFiles, align 8
  %spilledFiles11 = getelementptr inbounds %"struct.facebook::velox::common::SpillStats", ptr %this1, i32 0, i32 5
  %17 = load i64, ptr %spilledFiles11, align 8
  %add12 = add i64 %17, %16
  store i64 %add12, ptr %spilledFiles11, align 8
  %18 = load ptr, ptr %other.addr, align 8
  %spillFillTimeUs = getelementptr inbounds %"struct.facebook::velox::common::SpillStats", ptr %18, i32 0, i32 6
  %19 = load i64, ptr %spillFillTimeUs, align 8
  %spillFillTimeUs13 = getelementptr inbounds %"struct.facebook::velox::common::SpillStats", ptr %this1, i32 0, i32 6
  %20 = load i64, ptr %spillFillTimeUs13, align 8
  %add14 = add i64 %20, %19
  store i64 %add14, ptr %spillFillTimeUs13, align 8
  %21 = load ptr, ptr %other.addr, align 8
  %spillSortTimeUs = getelementptr inbounds %"struct.facebook::velox::common::SpillStats", ptr %21, i32 0, i32 7
  %22 = load i64, ptr %spillSortTimeUs, align 8
  %spillSortTimeUs15 = getelementptr inbounds %"struct.facebook::velox::common::SpillStats", ptr %this1, i32 0, i32 7
  %23 = load i64, ptr %spillSortTimeUs15, align 8
  %add16 = add i64 %23, %22
  store i64 %add16, ptr %spillSortTimeUs15, align 8
  %24 = load ptr, ptr %other.addr, align 8
  %spillSerializationTimeUs = getelementptr inbounds %"struct.facebook::velox::common::SpillStats", ptr %24, i32 0, i32 8
  %25 = load i64, ptr %spillSerializationTimeUs, align 8
  %spillSerializationTimeUs17 = getelementptr inbounds %"struct.facebook::velox::common::SpillStats", ptr %this1, i32 0, i32 8
  %26 = load i64, ptr %spillSerializationTimeUs17, align 8
  %add18 = add i64 %26, %25
  store i64 %add18, ptr %spillSerializationTimeUs17, align 8
  %27 = load ptr, ptr %other.addr, align 8
  %spillDiskWrites = getelementptr inbounds %"struct.facebook::velox::common::SpillStats", ptr %27, i32 0, i32 9
  %28 = load i64, ptr %spillDiskWrites, align 8
  %spillDiskWrites19 = getelementptr inbounds %"struct.facebook::velox::common::SpillStats", ptr %this1, i32 0, i32 9
  %29 = load i64, ptr %spillDiskWrites19, align 8
  %add20 = add i64 %29, %28
  store i64 %add20, ptr %spillDiskWrites19, align 8
  %30 = load ptr, ptr %other.addr, align 8
  %spillFlushTimeUs = getelementptr inbounds %"struct.facebook::velox::common::SpillStats", ptr %30, i32 0, i32 10
  %31 = load i64, ptr %spillFlushTimeUs, align 8
  %spillFlushTimeUs21 = getelementptr inbounds %"struct.facebook::velox::common::SpillStats", ptr %this1, i32 0, i32 10
  %32 = load i64, ptr %spillFlushTimeUs21, align 8
  %add22 = add i64 %32, %31
  store i64 %add22, ptr %spillFlushTimeUs21, align 8
  %33 = load ptr, ptr %other.addr, align 8
  %spillWriteTimeUs = getelementptr inbounds %"struct.facebook::velox::common::SpillStats", ptr %33, i32 0, i32 11
  %34 = load i64, ptr %spillWriteTimeUs, align 8
  %spillWriteTimeUs23 = getelementptr inbounds %"struct.facebook::velox::common::SpillStats", ptr %this1, i32 0, i32 11
  %35 = load i64, ptr %spillWriteTimeUs23, align 8
  %add24 = add i64 %35, %34
  store i64 %add24, ptr %spillWriteTimeUs23, align 8
  %36 = load ptr, ptr %other.addr, align 8
  %spillMaxLevelExceededCount = getelementptr inbounds %"struct.facebook::velox::common::SpillStats", ptr %36, i32 0, i32 12
  %37 = load i64, ptr %spillMaxLevelExceededCount, align 8
  %spillMaxLevelExceededCount25 = getelementptr inbounds %"struct.facebook::velox::common::SpillStats", ptr %this1, i32 0, i32 12
  %38 = load i64, ptr %spillMaxLevelExceededCount25, align 8
  %add26 = add i64 %38, %37
  store i64 %add26, ptr %spillMaxLevelExceededCount25, align 8
  ret ptr %this1
}