; Function Attrs: mustprogress nofree norecurse nosync nounwind willreturn memory(argmem: readwrite) uwtable
define noundef nonnull align 8 dereferenceable(104) ptr @_ZN8facebook5velox6common10SpillStatspLERKS2_(ptr noundef nonnull returned align 8 dereferenceable(104) %this, ptr nocapture noundef nonnull readonly align 8 dereferenceable(104) %other) local_unnamed_addr #1 align 2 {
entry:
  %0 = load i64, ptr %other, align 8
  %1 = load i64, ptr %this, align 8
  %add = add i64 %1, %0
  store i64 %add, ptr %this, align 8
  %spilledInputBytes = getelementptr inbounds i8, ptr %other, i64 8
  %2 = load i64, ptr %spilledInputBytes, align 8
  %spilledInputBytes3 = getelementptr inbounds i8, ptr %this, i64 8
  %3 = load i64, ptr %spilledInputBytes3, align 8
  %add4 = add i64 %3, %2
  store i64 %add4, ptr %spilledInputBytes3, align 8
  %spilledBytes = getelementptr inbounds i8, ptr %other, i64 16
  %4 = load i64, ptr %spilledBytes, align 8
  %spilledBytes5 = getelementptr inbounds i8, ptr %this, i64 16
  %5 = load i64, ptr %spilledBytes5, align 8
  %add6 = add i64 %5, %4
  store i64 %add6, ptr %spilledBytes5, align 8
  %spilledRows = getelementptr inbounds i8, ptr %other, i64 24
  %6 = load i64, ptr %spilledRows, align 8
  %spilledRows7 = getelementptr inbounds i8, ptr %this, i64 24
  %7 = load i64, ptr %spilledRows7, align 8
  %add8 = add i64 %7, %6
  store i64 %add8, ptr %spilledRows7, align 8
  %spilledPartitions = getelementptr inbounds i8, ptr %other, i64 32
  %8 = load i32, ptr %spilledPartitions, align 8
  %spilledPartitions9 = getelementptr inbounds i8, ptr %this, i64 32
  %9 = load i32, ptr %spilledPartitions9, align 8
  %add10 = add i32 %9, %8
  store i32 %add10, ptr %spilledPartitions9, align 8
  %spilledFiles = getelementptr inbounds i8, ptr %other, i64 40
  %10 = load i64, ptr %spilledFiles, align 8
  %spilledFiles11 = getelementptr inbounds i8, ptr %this, i64 40
  %11 = load i64, ptr %spilledFiles11, align 8
  %add12 = add i64 %11, %10
  store i64 %add12, ptr %spilledFiles11, align 8
  %spillFillTimeUs = getelementptr inbounds i8, ptr %other, i64 48
  %12 = load i64, ptr %spillFillTimeUs, align 8
  %spillFillTimeUs13 = getelementptr inbounds i8, ptr %this, i64 48
  %13 = load i64, ptr %spillFillTimeUs13, align 8
  %add14 = add i64 %13, %12
  store i64 %add14, ptr %spillFillTimeUs13, align 8
  %spillSortTimeUs = getelementptr inbounds i8, ptr %other, i64 56
  %14 = load i64, ptr %spillSortTimeUs, align 8
  %spillSortTimeUs15 = getelementptr inbounds i8, ptr %this, i64 56
  %15 = load i64, ptr %spillSortTimeUs15, align 8
  %add16 = add i64 %15, %14
  store i64 %add16, ptr %spillSortTimeUs15, align 8
  %spillSerializationTimeUs = getelementptr inbounds i8, ptr %other, i64 64
  %16 = load i64, ptr %spillSerializationTimeUs, align 8
  %spillSerializationTimeUs17 = getelementptr inbounds i8, ptr %this, i64 64
  %17 = load i64, ptr %spillSerializationTimeUs17, align 8
  %add18 = add i64 %17, %16
  store i64 %add18, ptr %spillSerializationTimeUs17, align 8
  %spillDiskWrites = getelementptr inbounds i8, ptr %other, i64 72
  %18 = load i64, ptr %spillDiskWrites, align 8
  %spillDiskWrites19 = getelementptr inbounds i8, ptr %this, i64 72
  %19 = load i64, ptr %spillDiskWrites19, align 8
  %add20 = add i64 %19, %18
  store i64 %add20, ptr %spillDiskWrites19, align 8
  %spillFlushTimeUs = getelementptr inbounds i8, ptr %other, i64 80
  %20 = load i64, ptr %spillFlushTimeUs, align 8
  %spillFlushTimeUs21 = getelementptr inbounds i8, ptr %this, i64 80
  %21 = load i64, ptr %spillFlushTimeUs21, align 8
  %add22 = add i64 %21, %20
  store i64 %add22, ptr %spillFlushTimeUs21, align 8
  %spillWriteTimeUs = getelementptr inbounds i8, ptr %other, i64 88
  %22 = load i64, ptr %spillWriteTimeUs, align 8
  %spillWriteTimeUs23 = getelementptr inbounds i8, ptr %this, i64 88
  %23 = load i64, ptr %spillWriteTimeUs23, align 8
  %add24 = add i64 %23, %22
  store i64 %add24, ptr %spillWriteTimeUs23, align 8
  %spillMaxLevelExceededCount = getelementptr inbounds i8, ptr %other, i64 96
  %24 = load i64, ptr %spillMaxLevelExceededCount, align 8
  %spillMaxLevelExceededCount25 = getelementptr inbounds i8, ptr %this, i64 96
  %25 = load i64, ptr %spillMaxLevelExceededCount25, align 8
  %add26 = add i64 %25, %24
  store i64 %add26, ptr %spillMaxLevelExceededCount25, align 8
  ret ptr %this
}